; Function Attrs: nounwind uwtable
define noalias noundef nonnull ptr @l_Lean_Parser_Tactic___aux__Init__Tactics______macroRules__Lean__Parser__Tactic__tacticNofun__1(ptr noundef %0, ptr noundef readonly captures(none) %1, ptr noundef %2) local_unnamed_addr #0 {
  %4 = load ptr, ptr @l_Lean_Parser_Tactic_tacticNofun___closed__2, align 8, !tbaa !4
  %5 = tail call zeroext i8 @l_Lean_Syntax_isOfKind(ptr noundef %0, ptr noundef %4) #5
  %6 = icmp eq i8 %5, 0
  br i1 %6, label %7, label %11

7:                                                ; preds = %3
  tail call void @lean_inc_heartbeat() #5
  %8 = tail call noalias ptr @mi_malloc_small(i64 noundef 24) #5
  %9 = icmp eq ptr %8, null
  br i1 %9, label %10, label %lean_alloc_ctor.exit

10:                                               ; preds = %7
  tail call void @lean_internal_panic_out_of_memory() #6
  unreachable

11:                                               ; preds = %3
  %12 = getelementptr inbounds nuw i8, ptr %1, i64 48
  %13 = load ptr, ptr %12, align 8, !tbaa !4
  %14 = tail call ptr @l_Lean_SourceInfo_fromRef(ptr noundef %13, i8 noundef zeroext 0) #5
  %15 = load ptr, ptr @l_Lean_Parser_Tactic_exact___closed__1, align 8, !tbaa !4
  %16 = ptrtoint ptr %14 to i64
  %17 = and i64 %16, 1
  %.not = icmp eq i64 %17, 0
  br i1 %.not, label %18, label %lean_inc.exit35

18:                                               ; preds = %11
  %.val.i = load i32, ptr %14, align 4, !tbaa !8
  %19 = icmp sgt i32 %.val.i, 0
  br i1 %19, label %20, label %22, !prof !11

20:                                               ; preds = %18
  %21 = add nuw i32 %.val.i, 1
  store i32 %21, ptr %14, align 4, !tbaa !8
  br label %lean_inc.exit35

22:                                               ; preds = %18
  %.not.i = icmp eq i32 %.val.i, 0
  br i1 %.not.i, label %lean_inc.exit35, label %23

23:                                               ; preds = %22
  tail call void @lean_inc_ref_cold(ptr noundef nonnull %14) #5
  br label %lean_inc.exit35

lean_inc.exit35:                                  ; preds = %23, %22, %20, %11
  tail call void @lean_inc_heartbeat() #5
  %24 = tail call noalias ptr @mi_malloc_small(i64 noundef 24) #5
  %25 = icmp eq ptr %24, null
  br i1 %25, label %26, label %lean_alloc_ctor.exit36

26:                                               ; preds = %lean_inc.exit35
  tail call void @lean_internal_panic_out_of_memory() #6
  unreachable

lean_alloc_ctor.exit36:                           ; preds = %lean_inc.exit35
  %27 = getelementptr inbounds nuw i8, ptr %24, i64 4
  store i32 1, ptr %24, align 4, !tbaa !8
  store i32 33685528, ptr %27, align 4
  %28 = getelementptr inbounds nuw i8, ptr %24, i64 8
  store ptr %14, ptr %28, align 8, !tbaa !4
  %29 = getelementptr inbounds nuw i8, ptr %24, i64 16
  store ptr %15, ptr %29, align 8, !tbaa !4
  %30 = load ptr, ptr @l_Lean_Parser_Tactic_tacticNofun___closed__3, align 8, !tbaa !4
  br i1 %.not, label %31, label %lean_inc.exit34

31:                                               ; preds = %lean_alloc_ctor.exit36
  %.val.i37 = load i32, ptr %14, align 4, !tbaa !8
  %32 = icmp sgt i32 %.val.i37, 0
  br i1 %32, label %33, label %35, !prof !11

33:                                               ; preds = %31
  %34 = add nuw i32 %.val.i37, 1
  store i32 %34, ptr %14, align 4, !tbaa !8
  br label %lean_inc.exit34

35:                                               ; preds = %31
  %.not.i38 = icmp eq i32 %.val.i37, 0
  br i1 %.not.i38, label %lean_inc.exit34, label %36

36:                                               ; preds = %35
  tail call void @lean_inc_ref_cold(ptr noundef nonnull %14) #5
  br label %lean_inc.exit34

lean_inc.exit34:                                  ; preds = %36, %35, %33, %lean_alloc_ctor.exit36
  tail call void @lean_inc_heartbeat() #5
  %37 = tail call noalias ptr @mi_malloc_small(i64 noundef 24) #5
  %38 = icmp eq ptr %37, null
  br i1 %38, label %39, label %lean_alloc_ctor.exit40

39:                                               ; preds = %lean_inc.exit34
  tail call void @lean_internal_panic_out_of_memory() #6
  unreachable

lean_alloc_ctor.exit40:                           ; preds = %lean_inc.exit34
  %40 = getelementptr inbounds nuw i8, ptr %37, i64 4
  store i32 1, ptr %37, align 4, !tbaa !8
  store i32 33685528, ptr %40, align 4
  %41 = getelementptr inbounds nuw i8, ptr %37, i64 8
  store ptr %14, ptr %41, align 8, !tbaa !4
  %42 = getelementptr inbounds nuw i8, ptr %37, i64 16
  store ptr %30, ptr %42, align 8, !tbaa !4
  %43 = load ptr, ptr @l_Lean_Parser_Tactic___aux__Init__Tactics______macroRules__Lean__Parser__Tactic__tacticNofun__1___closed__1, align 8, !tbaa !4
  br i1 %.not, label %44, label %lean_inc.exit

44:                                               ; preds = %lean_alloc_ctor.exit40
  %.val.i41 = load i32, ptr %14, align 4, !tbaa !8
  %45 = icmp sgt i32 %.val.i41, 0
  br i1 %45, label %46, label %48, !prof !11

46:                                               ; preds = %44
  %47 = add nuw i32 %.val.i41, 1
  store i32 %47, ptr %14, align 4, !tbaa !8
  br label %lean_inc.exit

48:                                               ; preds = %44
  %.not.i42 = icmp eq i32 %.val.i41, 0
  br i1 %.not.i42, label %lean_inc.exit, label %49

49:                                               ; preds = %48
  tail call void @lean_inc_ref_cold(ptr noundef nonnull %14) #5
  br label %lean_inc.exit

lean_inc.exit:                                    ; preds = %49, %48, %46, %lean_alloc_ctor.exit40
  %50 = tail call ptr @l_Lean_Syntax_node1(ptr noundef %14, ptr noundef %43, ptr noundef nonnull %37) #5
  %51 = load ptr, ptr @l_Lean_Parser_Tactic_exact___closed__2, align 8, !tbaa !4
  %52 = tail call ptr @l_Lean_Syntax_node2(ptr noundef %14, ptr noundef %51, ptr noundef nonnull %24, ptr noundef %50) #5
  tail call void @lean_inc_heartbeat() #5
  %53 = tail call noalias ptr @mi_malloc_small(i64 noundef 24) #5
  %54 = icmp eq ptr %53, null
  br i1 %54, label %55, label %lean_alloc_ctor.exit

55:                                               ; preds = %lean_inc.exit
  tail call void @lean_internal_panic_out_of_memory() #6
  unreachable

lean_alloc_ctor.exit:                             ; preds = %lean_inc.exit, %7
  %.sink51 = phi ptr [ %8, %7 ], [ %53, %lean_inc.exit ]
  %.sink48 = phi i32 [ 16908312, %7 ], [ 131096, %lean_inc.exit ]
  %.sink = phi ptr [ inttoptr (i64 3 to ptr), %7 ], [ %52, %lean_inc.exit ]
  %56 = getelementptr inbounds nuw i8, ptr %.sink51, i64 4
  store i32 1, ptr %.sink51, align 4, !tbaa !8
  store i32 %.sink48, ptr %56, align 4
  %57 = getelementptr inbounds nuw i8, ptr %.sink51, i64 8
  store ptr %.sink, ptr %57, align 8, !tbaa !4
  %58 = getelementptr inbounds nuw i8, ptr %.sink51, i64 16
  store ptr %2, ptr %58, align 8, !tbaa !4
  ret ptr %.sink51
}